; Function Attrs: nounwind uwtable
define ptr @l_Lake_ELogT_takeAndRun___rarg(ptr noundef %0, ptr noundef %1, ptr noundef %2, ptr noundef %3, ptr noundef %4) #1 {
  %6 = getelementptr inbounds nuw i8, ptr %0, i64 16
  %7 = load ptr, ptr %6, align 8, !tbaa !10
  %8 = ptrtoint ptr %7 to i64
  %9 = and i64 %8, 1
  %.not = icmp eq i64 %9, 0
  br i1 %.not, label %10, label %lean_inc.exit24

10:                                               ; preds = %5
  %.val.i = load i32, ptr %7, align 4, !tbaa !4
  %11 = icmp sgt i32 %.val.i, 0
  br i1 %11, label %12, label %14, !prof !9

12:                                               ; preds = %10
  %13 = add nuw i32 %.val.i, 1
  store i32 %13, ptr %7, align 4, !tbaa !4
  br label %lean_inc.exit24

14:                                               ; preds = %10
  %.not.i = icmp eq i32 %.val.i, 0
  br i1 %.not.i, label %lean_inc.exit24, label %15

15:                                               ; preds = %14
  tail call void @lean_inc_ref_cold(ptr noundef nonnull %7) #9
  br label %lean_inc.exit24

lean_inc.exit24:                                  ; preds = %15, %14, %12, %5
  %16 = getelementptr inbounds nuw i8, ptr %1, i64 24
  %17 = load ptr, ptr %16, align 8, !tbaa !10
  %18 = ptrtoint ptr %17 to i64
  %19 = and i64 %18, 1
  %.not31 = icmp eq i64 %19, 0
  br i1 %.not31, label %20, label %lean_inc.exit23

20:                                               ; preds = %lean_inc.exit24
  %.val.i25 = load i32, ptr %17, align 4, !tbaa !4
  %21 = icmp sgt i32 %.val.i25, 0
  br i1 %21, label %22, label %24, !prof !9

22:                                               ; preds = %20
  %23 = add nuw i32 %.val.i25, 1
  store i32 %23, ptr %17, align 4, !tbaa !4
  br label %lean_inc.exit23

24:                                               ; preds = %20
  %.not.i26 = icmp eq i32 %.val.i25, 0
  br i1 %.not.i26, label %lean_inc.exit23, label %25

25:                                               ; preds = %24
  tail call void @lean_inc_ref_cold(ptr noundef nonnull %17) #9
  br label %lean_inc.exit23

lean_inc.exit23:                                  ; preds = %25, %24, %22, %lean_inc.exit24
  %26 = load ptr, ptr @l_Lake_takeLog___rarg___closed__1, align 8, !tbaa !10
  %27 = tail call ptr @lean_apply_2(ptr noundef %17, ptr noundef nonnull inttoptr (i64 1 to ptr), ptr noundef %26) #9
  br i1 %.not, label %28, label %lean_inc.exit

28:                                               ; preds = %lean_inc.exit23
  %.val.i28 = load i32, ptr %7, align 4, !tbaa !4
  %29 = icmp sgt i32 %.val.i28, 0
  br i1 %29, label %30, label %32, !prof !9

30:                                               ; preds = %28
  %31 = add nuw i32 %.val.i28, 1
  store i32 %31, ptr %7, align 4, !tbaa !4
  br label %lean_inc.exit

32:                                               ; preds = %28
  %.not.i29 = icmp eq i32 %.val.i28, 0
  br i1 %.not.i29, label %lean_inc.exit, label %33

33:                                               ; preds = %32
  tail call void @lean_inc_ref_cold(ptr noundef nonnull %7) #9
  br label %lean_inc.exit

lean_inc.exit:                                    ; preds = %33, %32, %30, %lean_inc.exit23
  tail call void @lean_inc_heartbeat() #9
  %34 = tail call noalias ptr @mi_malloc_small(i64 noundef 72) #9
  %35 = icmp eq ptr %34, null
  br i1 %35, label %36, label %lean_alloc_closure.exit

36:                                               ; preds = %lean_inc.exit
  tail call void @lean_internal_panic_out_of_memory() #10
  unreachable

lean_alloc_closure.exit:                          ; preds = %lean_inc.exit
  %37 = getelementptr inbounds nuw i8, ptr %34, i64 4
  store i32 1, ptr %34, align 4, !tbaa !4
  store i32 -184549304, ptr %37, align 4
  %38 = getelementptr inbounds nuw i8, ptr %34, i64 8
  store ptr @l_Lake_ELogT_takeAndRun___rarg___lambda__2, ptr %38, align 8, !tbaa !10
  %39 = getelementptr inbounds nuw i8, ptr %34, i64 16
  store i16 7, ptr %39, align 8, !tbaa !12
  %40 = getelementptr inbounds nuw i8, ptr %34, i64 18
  store i16 6, ptr %40, align 2, !tbaa !12
  %41 = getelementptr inbounds nuw i8, ptr %34, i64 24
  store ptr %4, ptr %41, align 8, !tbaa !10
  %42 = getelementptr inbounds nuw i8, ptr %34, i64 32
  store ptr %3, ptr %42, align 8, !tbaa !10
  %43 = getelementptr inbounds nuw i8, ptr %34, i64 40
  store ptr %1, ptr %43, align 8, !tbaa !10
  %44 = getelementptr inbounds nuw i8, ptr %34, i64 48
  store ptr %0, ptr %44, align 8, !tbaa !10
  %45 = getelementptr inbounds nuw i8, ptr %34, i64 56
  store ptr %7, ptr %45, align 8, !tbaa !10
  %46 = getelementptr inbounds nuw i8, ptr %34, i64 64
  store ptr %2, ptr %46, align 8, !tbaa !10
  %47 = tail call ptr @lean_apply_4(ptr noundef %7, ptr noundef nonnull inttoptr (i64 1 to ptr), ptr noundef nonnull inttoptr (i64 1 to ptr), ptr noundef %27, ptr noundef nonnull %34) #9
  ret ptr %47
}